target datalayout = "e-m:e-p270:32:32-p271:32:32-p272:64:64-i64:64-i128:128-f80:128-n8:16:32:64-S128"
target triple = "x86_64-pc-linux-gnu"

%struct.jpeg_compress_struct = type { ptr, ptr, ptr, ptr, i32, i32, ptr, i32, i32, i32, i32, double, i32, i32, i32, ptr, [4 x ptr], [4 x ptr], [4 x ptr], [16 x i8], [16 x i8], [16 x i8], i32, ptr, i32, i32, i32, i32, i32, i32, i32, i32, i32, i8, i8, i8, i16, i16, i32, i32, i32, i32, i32, i32, i32, [4 x ptr], i32, i32, i32, [10 x i32], i32, i32, i32, i32, ptr, ptr, ptr, ptr, ptr, ptr, ptr, ptr, ptr, ptr, i32 }
%struct.jpeg_error_mgr = type { ptr, ptr, ptr, ptr, ptr, i32, %union.anon, i32, i64, ptr, i32, ptr, i32, i32 }
%union.anon = type { [8 x i32], [48 x i8] }
%struct.jpeg_memory_mgr = type { ptr, ptr, ptr, ptr, ptr, ptr, ptr, ptr, ptr, ptr, ptr, i64, i64 }
%struct.JHUFF_TBL = type { [17 x i8], [256 x i8], i32 }

@std_huff_tables.bits_dc_luminance = internal constant [17 x i8] c"\00\00\01\05\01\01\01\01\01\01\00\00\00\00\00\00\00", align 16
@std_huff_tables.val_dc_luminance = internal constant [12 x i8] c"\00\01\02\03\04\05\06\07\08\09\0A\0B", align 1
@std_huff_tables.bits_dc_chrominance = internal constant [17 x i8] c"\00\00\03\01\01\01\01\01\01\01\01\01\00\00\00\00\00", align 16
@std_huff_tables.val_dc_chrominance = internal constant [12 x i8] c"\00\01\02\03\04\05\06\07\08\09\0A\0B", align 1
@std_huff_tables.bits_ac_luminance = internal constant [17 x i8] c"\00\00\02\01\03\03\02\04\03\05\05\04\04\00\00\01}", align 16
@std_huff_tables.bits_ac_chrominance = internal constant [17 x i8] c"\00\00\02\01\02\04\04\03\04\07\05\04\04\00\01\02w", align 16

; Function Attrs: nounwind uwtable
define internal void @add_huff_table(ptr noundef %0, ptr noundef %1, ptr noundef %2, ptr noundef %3) #0 {
  %5 = alloca ptr, align 8
  %6 = alloca ptr, align 8
  %7 = alloca ptr, align 8
  %8 = alloca ptr, align 8
  %9 = alloca i32, align 4
  %10 = alloca i32, align 4
  store ptr %0, ptr %5, align 8
  store ptr %1, ptr %6, align 8
  store ptr %2, ptr %7, align 8
  store ptr %3, ptr %8, align 8
  %11 = load ptr, ptr %6, align 8
  %12 = load ptr, ptr %11, align 8
  %13 = icmp eq ptr %12, null
  br i1 %13, label %14, label %18

14:                                               ; preds = %4
  %15 = load ptr, ptr %5, align 8
  %16 = call ptr @jAlcHTable(ptr noundef %15)
  %17 = load ptr, ptr %6, align 8
  store ptr %16, ptr %17, align 8
  br label %18

18:                                               ; preds = %14, %4
  %19 = load ptr, ptr %6, align 8
  %20 = load ptr, ptr %19, align 8
  %21 = getelementptr inbounds %struct.JHUFF_TBL, ptr %20, i32 0, i32 0
  %22 = getelementptr inbounds [17 x i8], ptr %21, i64 0, i64 0
  %23 = load ptr, ptr %7, align 8
  call void @llvm.memcpy.p0.p0.i64(ptr align 4 %22, ptr align 1 %23, i64 17, i1 false)
  store i32 0, ptr %9, align 4
  store i32 1, ptr %10, align 4
  br label %24

24:                                               ; preds = %36, %18
  %25 = load i32, ptr %10, align 4
  %26 = icmp sle i32 %25, 16
  br i1 %26, label %27, label %39

27:                                               ; preds = %24
  %28 = load ptr, ptr %7, align 8
  %29 = load i32, ptr %10, align 4
  %30 = sext i32 %29 to i64
  %31 = getelementptr inbounds i8, ptr %28, i64 %30
  %32 = load i8, ptr %31, align 1
  %33 = zext i8 %32 to i32
  %34 = load i32, ptr %9, align 4
  %35 = add nsw i32 %34, %33
  store i32 %35, ptr %9, align 4
  br label %36

36:                                               ; preds = %27
  %37 = load i32, ptr %10, align 4
  %38 = add nsw i32 %37, 1
  store i32 %38, ptr %10, align 4
  br label %24, !llvm.loop !12

39:                                               ; preds = %24
  %40 = load i32, ptr %9, align 4
  %41 = icmp slt i32 %40, 1
  br i1 %41, label %45, label %42

42:                                               ; preds = %39
  %43 = load i32, ptr %9, align 4
  %44 = icmp sgt i32 %43, 256
  br i1 %44, label %45, label %56

45:                                               ; preds = %42, %39
  %46 = load ptr, ptr %5, align 8
  %47 = getelementptr inbounds %struct.jpeg_compress_struct, ptr %46, i32 0, i32 0
  %48 = load ptr, ptr %47, align 8
  %49 = getelementptr inbounds %struct.jpeg_error_mgr, ptr %48, i32 0, i32 5
  store i32 8, ptr %49, align 8
  %50 = load ptr, ptr %5, align 8
  %51 = getelementptr inbounds %struct.jpeg_compress_struct, ptr %50, i32 0, i32 0
  %52 = load ptr, ptr %51, align 8
  %53 = getelementptr inbounds %struct.jpeg_error_mgr, ptr %52, i32 0, i32 0
  %54 = load ptr, ptr %53, align 8
  %55 = load ptr, ptr %5, align 8
  call void %54(ptr noundef %55)
  br label %56

56:                                               ; preds = %45, %42
  %57 = load ptr, ptr %6, align 8
  %58 = load ptr, ptr %57, align 8
  %59 = getelementptr inbounds %struct.JHUFF_TBL, ptr %58, i32 0, i32 1
  %60 = getelementptr inbounds [256 x i8], ptr %59, i64 0, i64 0
  %61 = load ptr, ptr %8, align 8
  %62 = load i32, ptr %9, align 4
  %63 = sext i32 %62 to i64
  %64 = mul i64 %63, 1
  call void @llvm.memcpy.p0.p0.i64(ptr align 1 %60, ptr align 1 %61, i64 %64, i1 false)
  %65 = load ptr, ptr %6, align 8
  %66 = load ptr, ptr %65, align 8
  %67 = getelementptr inbounds %struct.JHUFF_TBL, ptr %66, i32 0, i32 2
  store i32 0, ptr %67, align 4
  ret void
}

; Function Attrs: nounwind uwtable
define hidden i32 @jQualityScaling(i32 noundef %0) #0 {
  %2 = alloca i32, align 4
  store i32 %0, ptr %2, align 4
  %3 = load i32, ptr %2, align 4
  %4 = icmp sle i32 %3, 0
  br i1 %4, label %5, label %6

5:                                                ; preds = %1
  store i32 1, ptr %2, align 4
  br label %6

6:                                                ; preds = %5, %1
  %7 = load i32, ptr %2, align 4
  %8 = icmp sgt i32 %7, 100
  br i1 %8, label %9, label %10

9:                                                ; preds = %6
  store i32 100, ptr %2, align 4
  br label %10

10:                                               ; preds = %9, %6
  %11 = load i32, ptr %2, align 4
  %12 = icmp slt i32 %11, 50
  br i1 %12, label %13, label %16

13:                                               ; preds = %10
  %14 = load i32, ptr %2, align 4
  %15 = sdiv i32 5000, %14
  store i32 %15, ptr %2, align 4
  br label %20

16:                                               ; preds = %10
  %17 = load i32, ptr %2, align 4
  %18 = mul nsw i32 %17, 2
  %19 = sub nsw i32 200, %18
  store i32 %19, ptr %2, align 4
  br label %20

20:                                               ; preds = %16, %13
  %21 = load i32, ptr %2, align 4
  ret i32 %21
}

; Function Attrs: nounwind uwtable
define internal void @std_huff_tables(ptr noundef %0) #0 {
  %2 = alloca ptr, align 8
  store ptr %0, ptr %2, align 8
  %3 = load ptr, ptr %2, align 8
  %4 = load ptr, ptr %2, align 8
  %5 = getelementptr inbounds %struct.jpeg_compress_struct, ptr %4, i32 0, i32 17
  %6 = getelementptr inbounds [4 x ptr], ptr %5, i64 0, i64 0
  call void @add_huff_table(ptr noundef %3, ptr noundef %6, ptr noundef @std_huff_tables.bits_dc_luminance, ptr noundef @std_huff_tables.val_dc_luminance)
  %7 = load ptr, ptr %2, align 8
  %8 = load ptr, ptr %2, align 8
  %9 = getelementptr inbounds %struct.jpeg_compress_struct, ptr %8, i32 0, i32 18
  %10 = getelementptr inbounds [4 x ptr], ptr %9, i64 0, i64 0
  call void @add_huff_table(ptr noundef %7, ptr noundef %10, ptr noundef @std_huff_tables.bits_ac_luminance, ptr noundef @std_huff_tables.val_ac_luminance)
  %11 = load ptr, ptr %2, align 8
  %12 = load ptr, ptr %2, align 8
  %13 = getelementptr inbounds %struct.jpeg_compress_struct, ptr %12, i32 0, i32 17
  %14 = getelementptr inbounds [4 x ptr], ptr %13, i64 0, i64 1
  call void @add_huff_table(ptr noundef %11, ptr noundef %14, ptr noundef @std_huff_tables.bits_dc_chrominance, ptr noundef @std_huff_tables.val_dc_chrominance)
  %15 = load ptr, ptr %2, align 8
  %16 = load ptr, ptr %2, align 8
  %17 = getelementptr inbounds %struct.jpeg_compress_struct, ptr %16, i32 0, i32 18
  %18 = getelementptr inbounds [4 x ptr], ptr %17, i64 0, i64 1
  call void @add_huff_table(ptr noundef %15, ptr noundef %18, ptr noundef @std_huff_tables.bits_ac_chrominance, ptr noundef @std_huff_tables.val_ac_chrominance)
  ret void
}

; Function Attrs: nounwind uwtable
define hidden void @jSetQuality(ptr noundef %0, i32 noundef %1, i32 noundef %2) #0 {
  %4 = alloca ptr, align 8
  %5 = alloca i32, align 4
  %6 = alloca i32, align 4
  store ptr %0, ptr %4, align 8
  store i32 %1, ptr %5, align 4
  store i32 %2, ptr %6, align 4
  %7 = load i32, ptr %5, align 4
  %8 = call i32 @jQualityScaling(i32 noundef %7)
  store i32 %8, ptr %5, align 4
  %9 = load ptr, ptr %4, align 8
  %10 = load i32, ptr %5, align 4
  %11 = load i32, ptr %6, align 4
  call void @jSetLQuality(ptr noundef %9, i32 noundef %10, i32 noundef %11)
  ret void
}

; Function Attrs: nounwind uwtable
define hidden void @jSetDefaults(ptr noundef %0) #0 {
  %2 = alloca ptr, align 8
  %3 = alloca i32, align 4
  store ptr %0, ptr %2, align 8
  %4 = load ptr, ptr %2, align 8
  %5 = getelementptr inbounds %struct.jpeg_compress_struct, ptr %4, i32 0, i32 5
  %6 = load i32, ptr %5, align 4
  %7 = icmp ne i32 %6, 100
  br i1 %7, label %8, label %27

8:                                                ; preds = %1
  %9 = load ptr, ptr %2, align 8
  %10 = getelementptr inbounds %struct.jpeg_compress_struct, ptr %9, i32 0, i32 0
  %11 = load ptr, ptr %10, align 8
  %12 = getelementptr inbounds %struct.jpeg_error_mgr, ptr %11, i32 0, i32 5
  store i32 20, ptr %12, align 8
  %13 = load ptr, ptr %2, align 8
  %14 = getelementptr inbounds %struct.jpeg_compress_struct, ptr %13, i32 0, i32 5
  %15 = load i32, ptr %14, align 4
  %16 = load ptr, ptr %2, align 8
  %17 = getelementptr inbounds %struct.jpeg_compress_struct, ptr %16, i32 0, i32 0
  %18 = load ptr, ptr %17, align 8
  %19 = getelementptr inbounds %struct.jpeg_error_mgr, ptr %18, i32 0, i32 6
  %20 = getelementptr inbounds [8 x i32], ptr %19, i64 0, i64 0
  store i32 %15, ptr %20, align 4
  %21 = load ptr, ptr %2, align 8
  %22 = getelementptr inbounds %struct.jpeg_compress_struct, ptr %21, i32 0, i32 0
  %23 = load ptr, ptr %22, align 8
  %24 = getelementptr inbounds %struct.jpeg_error_mgr, ptr %23, i32 0, i32 0
  %25 = load ptr, ptr %24, align 8
  %26 = load ptr, ptr %2, align 8
  call void %25(ptr noundef %26)
  br label %27

27:                                               ; preds = %8, %1
  %28 = load ptr, ptr %2, align 8
  %29 = getelementptr inbounds %struct.jpeg_compress_struct, ptr %28, i32 0, i32 15
  %30 = load ptr, ptr %29, align 8
  %31 = icmp eq ptr %30, null
  br i1 %31, label %32, label %42

32:                                               ; preds = %27
  %33 = load ptr, ptr %2, align 8
  %34 = getelementptr inbounds %struct.jpeg_compress_struct, ptr %33, i32 0, i32 1
  %35 = load ptr, ptr %34, align 8
  %36 = getelementptr inbounds %struct.jpeg_memory_mgr, ptr %35, i32 0, i32 0
  %37 = load ptr, ptr %36, align 8
  %38 = load ptr, ptr %2, align 8
  %39 = call ptr %37(ptr noundef %38, i32 noundef 0, i64 noundef 960)
  %40 = load ptr, ptr %2, align 8
  %41 = getelementptr inbounds %struct.jpeg_compress_struct, ptr %40, i32 0, i32 15
  store ptr %39, ptr %41, align 8
  br label %42

42:                                               ; preds = %32, %27
  %43 = load ptr, ptr %2, align 8
  %44 = getelementptr inbounds %struct.jpeg_compress_struct, ptr %43, i32 0, i32 12
  store i32 8, ptr %44, align 8
  %45 = load ptr, ptr %2, align 8
  call void @jSetQuality(ptr noundef %45, i32 noundef 75, i32 noundef 1)
  %46 = load ptr, ptr %2, align 8
  call void @std_huff_tables(ptr noundef %46)
  store i32 0, ptr %3, align 4
  br label %47

47:                                               ; preds = %66, %42
  %48 = load i32, ptr %3, align 4
  %49 = icmp slt i32 %48, 16
  br i1 %49, label %50, label %69

50:                                               ; preds = %47
  %51 = load ptr, ptr %2, align 8
  %52 = getelementptr inbounds %struct.jpeg_compress_struct, ptr %51, i32 0, i32 19
  %53 = load i32, ptr %3, align 4
  %54 = sext i32 %53 to i64
  %55 = getelementptr inbounds [16 x i8], ptr %52, i64 0, i64 %54
  store i8 0, ptr %55, align 1
  %56 = load ptr, ptr %2, align 8
  %57 = getelementptr inbounds %struct.jpeg_compress_struct, ptr %56, i32 0, i32 20
  %58 = load i32, ptr %3, align 4
  %59 = sext i32 %58 to i64
  %60 = getelementptr inbounds [16 x i8], ptr %57, i64 0, i64 %59
  store i8 1, ptr %60, align 1
  %61 = load ptr, ptr %2, align 8
  %62 = getelementptr inbounds %struct.jpeg_compress_struct, ptr %61, i32 0, i32 21
  %63 = load i32, ptr %3, align 4
  %64 = sext i32 %63 to i64
  %65 = getelementptr inbounds [16 x i8], ptr %62, i64 0, i64 %64
  store i8 5, ptr %65, align 1
  br label %66

66:                                               ; preds = %50
  %67 = load i32, ptr %3, align 4
  %68 = add nsw i32 %67, 1
  store i32 %68, ptr %3, align 4
  br label %47, !llvm.loop !8

69:                                               ; preds = %47
  %70 = load ptr, ptr %2, align 8
  %71 = getelementptr inbounds %struct.jpeg_compress_struct, ptr %70, i32 0, i32 23
  store ptr null, ptr %71, align 8
  %72 = load ptr, ptr %2, align 8
  %73 = getelementptr inbounds %struct.jpeg_compress_struct, ptr %72, i32 0, i32 22
  store i32 0, ptr %73, align 8
  %74 = load ptr, ptr %2, align 8
  %75 = getelementptr inbounds %struct.jpeg_compress_struct, ptr %74, i32 0, i32 24
  store i32 0, ptr %75, align 8
  %76 = load ptr, ptr %2, align 8
  %77 = getelementptr inbounds %struct.jpeg_compress_struct, ptr %76, i32 0, i32 25
  store i32 0, ptr %77, align 4
  %78 = load ptr, ptr %2, align 8
  %79 = getelementptr inbounds %struct.jpeg_compress_struct, ptr %78, i32 0, i32 26
  store i32 0, ptr %79, align 8
  %80 = load ptr, ptr %2, align 8
  %81 = getelementptr inbounds %struct.jpeg_compress_struct, ptr %80, i32 0, i32 12
  %82 = load i32, ptr %81, align 8
  %83 = icmp sgt i32 %82, 8
  br i1 %83, label %84, label %87

84:                                               ; preds = %69
  %85 = load ptr, ptr %2, align 8
  %86 = getelementptr inbounds %struct.jpeg_compress_struct, ptr %85, i32 0, i32 26
  store i32 1, ptr %86, align 8
  br label %87

87:                                               ; preds = %84, %69
  %88 = load ptr, ptr %2, align 8
  %89 = getelementptr inbounds %struct.jpeg_compress_struct, ptr %88, i32 0, i32 27
  store i32 0, ptr %89, align 4
  %90 = load ptr, ptr %2, align 8
  %91 = getelementptr inbounds %struct.jpeg_compress_struct, ptr %90, i32 0, i32 28
  store i32 0, ptr %91, align 8
  %92 = load ptr, ptr %2, align 8
  %93 = getelementptr inbounds %struct.jpeg_compress_struct, ptr %92, i32 0, i32 29
  store i32 0, ptr %93, align 4
  %94 = load ptr, ptr %2, align 8
  %95 = getelementptr inbounds %struct.jpeg_compress_struct, ptr %94, i32 0, i32 30
  store i32 0, ptr %95, align 8
  %96 = load ptr, ptr %2, align 8
  %97 = getelementptr inbounds %struct.jpeg_compress_struct, ptr %96, i32 0, i32 31
  store i32 0, ptr %97, align 4
  %98 = load ptr, ptr %2, align 8
  %99 = getelementptr inbounds %struct.jpeg_compress_struct, ptr %98, i32 0, i32 33
  store i8 1, ptr %99, align 4
  %100 = load ptr, ptr %2, align 8
  %101 = getelementptr inbounds %struct.jpeg_compress_struct, ptr %100, i32 0, i32 34
  store i8 1, ptr %101, align 1
  %102 = load ptr, ptr %2, align 8
  %103 = getelementptr inbounds %struct.jpeg_compress_struct, ptr %102, i32 0, i32 35
  store i8 0, ptr %103, align 2
  %104 = load ptr, ptr %2, align 8
  %105 = getelementptr inbounds %struct.jpeg_compress_struct, ptr %104, i32 0, i32 36
  store i16 1, ptr %105, align 8
  %106 = load ptr, ptr %2, align 8
  %107 = getelementptr inbounds %struct.jpeg_compress_struct, ptr %106, i32 0, i32 37
  store i16 1, ptr %107, align 2
  %108 = load ptr, ptr %2, align 8
  call void @jDefColorspace(ptr noundef %108)
  ret void
}