; Function Attrs: nounwind uwtable
define hidden void @jSetDefaults(ptr noundef %0) local_unnamed_addr #0 {
  %2 = getelementptr inbounds i8, ptr %0, i64 36
  %3 = load i32, ptr %2, align 4
  %.not = icmp eq i32 %3, 100
  br i1 %.not, label %12, label %4

4:                                                ; preds = %1
  %5 = load ptr, ptr %0, align 8
  %6 = getelementptr inbounds i8, ptr %5, i64 40
  store i32 20, ptr %6, align 8
  %7 = load i32, ptr %2, align 4
  %8 = load ptr, ptr %0, align 8
  %9 = getelementptr inbounds i8, ptr %8, i64 44
  store i32 %7, ptr %9, align 4
  %10 = load ptr, ptr %0, align 8
  %11 = load ptr, ptr %10, align 8
  tail call void %11(ptr noundef nonnull %0) #6
  br label %12

12:                                               ; preds = %4, %1
  %13 = getelementptr inbounds i8, ptr %0, i64 88
  %14 = load ptr, ptr %13, align 8
  %15 = icmp eq ptr %14, null
  br i1 %15, label %16, label %21

16:                                               ; preds = %12
  %17 = getelementptr inbounds i8, ptr %0, i64 8
  %18 = load ptr, ptr %17, align 8
  %19 = load ptr, ptr %18, align 8
  %20 = tail call ptr %19(ptr noundef nonnull %0, i32 noundef 0, i64 noundef 960) #6
  store ptr %20, ptr %13, align 8
  br label %21

21:                                               ; preds = %16, %12
  %22 = getelementptr inbounds i8, ptr %0, i64 72
  store i32 8, ptr %22, align 8
  tail call void @jSetLQuality(ptr noundef nonnull %0, i32 noundef 50, i32 noundef 1)
  %23 = getelementptr inbounds i8, ptr %0, i64 128
  %24 = load ptr, ptr %23, align 8
  %25 = icmp eq ptr %24, null
  br i1 %25, label %26, label %add_huff_table.exit.i

26:                                               ; preds = %21
  %27 = tail call ptr @jAlcHTable(ptr noundef nonnull %0) #6
  store ptr %27, ptr %23, align 8
  br label %add_huff_table.exit.i

add_huff_table.exit.i:                            ; preds = %26, %21
  %28 = phi ptr [ %27, %26 ], [ %24, %21 ]
  tail call void @llvm.memcpy.p0.p0.i64(ptr noundef nonnull align 4 dereferenceable(17) %28, ptr noundef nonnull readonly align 16 dereferenceable(17) @std_huff_tables.bits_dc_luminance, i64 17, i1 false)
  %.pre.i = load ptr, ptr %23, align 8
  %29 = getelementptr inbounds i8, ptr %.pre.i, i64 17
  tail call void @llvm.memcpy.p0.p0.i64(ptr noundef nonnull align 1 dereferenceable(12) %29, ptr noundef nonnull readonly align 1 dereferenceable(12) @std_huff_tables.val_dc_chrominance, i64 12, i1 false)
  %30 = load ptr, ptr %23, align 8
  %31 = getelementptr inbounds i8, ptr %30, i64 276
  store i32 0, ptr %31, align 4
  %32 = getelementptr inbounds i8, ptr %0, i64 160
  %33 = load ptr, ptr %32, align 8
  %34 = icmp eq ptr %33, null
  br i1 %34, label %35, label %add_huff_table.exit13.i

35:                                               ; preds = %add_huff_table.exit.i
  %36 = tail call ptr @jAlcHTable(ptr noundef nonnull %0) #6
  store ptr %36, ptr %32, align 8
  br label %add_huff_table.exit13.i

add_huff_table.exit13.i:                          ; preds = %35, %add_huff_table.exit.i
  %37 = phi ptr [ %36, %35 ], [ %33, %add_huff_table.exit.i ]
  tail call void @llvm.memcpy.p0.p0.i64(ptr noundef nonnull align 4 dereferenceable(17) %37, ptr noundef nonnull readonly align 16 dereferenceable(17) @std_huff_tables.bits_ac_luminance, i64 17, i1 false)
  %.pre32.i = load ptr, ptr %32, align 8
  %38 = getelementptr inbounds i8, ptr %.pre32.i, i64 17
  tail call void @llvm.memcpy.p0.p0.i64(ptr noundef nonnull align 1 dereferenceable(162) %38, ptr noundef nonnull readonly align 16 dereferenceable(162) @std_huff_tables.val_ac_luminance, i64 162, i1 false)
  %39 = load ptr, ptr %32, align 8
  %40 = getelementptr inbounds i8, ptr %39, i64 276
  store i32 0, ptr %40, align 4
  %41 = getelementptr inbounds i8, ptr %0, i64 136
  %42 = load ptr, ptr %41, align 8
  %43 = icmp eq ptr %42, null
  br i1 %43, label %44, label %add_huff_table.exit19.i

44:                                               ; preds = %add_huff_table.exit13.i
  %45 = tail call ptr @jAlcHTable(ptr noundef nonnull %0) #6
  store ptr %45, ptr %41, align 8
  br label %add_huff_table.exit19.i

add_huff_table.exit19.i:                          ; preds = %44, %add_huff_table.exit13.i
  %46 = phi ptr [ %45, %44 ], [ %42, %add_huff_table.exit13.i ]
  tail call void @llvm.memcpy.p0.p0.i64(ptr noundef nonnull align 4 dereferenceable(17) %46, ptr noundef nonnull readonly align 16 dereferenceable(17) @std_huff_tables.bits_dc_chrominance, i64 17, i1 false)
  %.pre33.i = load ptr, ptr %41, align 8
  %47 = getelementptr inbounds i8, ptr %.pre33.i, i64 17
  tail call void @llvm.memcpy.p0.p0.i64(ptr noundef nonnull align 1 dereferenceable(12) %47, ptr noundef nonnull readonly align 1 dereferenceable(12) @std_huff_tables.val_dc_chrominance, i64 12, i1 false)
  %48 = load ptr, ptr %41, align 8
  %49 = getelementptr inbounds i8, ptr %48, i64 276
  store i32 0, ptr %49, align 4
  %50 = getelementptr inbounds i8, ptr %0, i64 168
  %51 = load ptr, ptr %50, align 8
  %52 = icmp eq ptr %51, null
  br i1 %52, label %53, label %std_huff_tables.exit

53:                                               ; preds = %add_huff_table.exit19.i
  %54 = tail call ptr @jAlcHTable(ptr noundef nonnull %0) #6
  store ptr %54, ptr %50, align 8
  br label %std_huff_tables.exit

std_huff_tables.exit:                             ; preds = %add_huff_table.exit19.i, %53
  %55 = phi ptr [ %54, %53 ], [ %51, %add_huff_table.exit19.i ]
  tail call void @llvm.memcpy.p0.p0.i64(ptr noundef nonnull align 4 dereferenceable(17) %55, ptr noundef nonnull readonly align 16 dereferenceable(17) @std_huff_tables.bits_ac_chrominance, i64 17, i1 false)
  %.pre34.i = load ptr, ptr %50, align 8
  %56 = getelementptr inbounds i8, ptr %.pre34.i, i64 17
  tail call void @llvm.memcpy.p0.p0.i64(ptr noundef nonnull align 1 dereferenceable(162) %56, ptr noundef nonnull readonly align 16 dereferenceable(162) @std_huff_tables.val_ac_chrominance, i64 162, i1 false)
  %57 = load ptr, ptr %50, align 8
  %58 = getelementptr inbounds i8, ptr %57, i64 276
  store i32 0, ptr %58, align 4
  %59 = getelementptr inbounds i8, ptr %0, i64 192
  %60 = getelementptr inbounds i8, ptr %0, i64 208
  %61 = getelementptr inbounds i8, ptr %0, i64 224
  tail call void @llvm.memset.p0.i64(ptr noundef nonnull align 1 dereferenceable(16) %59, i8 0, i64 16, i1 false)
  tail call void @llvm.memset.p0.i64(ptr noundef nonnull align 1 dereferenceable(16) %60, i8 1, i64 16, i1 false)
  tail call void @llvm.memset.p0.i64(ptr noundef nonnull align 1 dereferenceable(16) %61, i8 5, i64 16, i1 false)
  %62 = getelementptr inbounds i8, ptr %0, i64 248
  %63 = getelementptr inbounds i8, ptr %0, i64 240
  store i32 0, ptr %63, align 8
  %64 = getelementptr inbounds i8, ptr %0, i64 264
  tail call void @llvm.memset.p0.i64(ptr noundef nonnull align 8 dereferenceable(16) %62, i8 0, i64 16, i1 false)
  %65 = load i32, ptr %22, align 8
  %66 = icmp sgt i32 %65, 8
  %spec.store.select = zext i1 %66 to i32
  store i32 %spec.store.select, ptr %64, align 8
  %67 = getelementptr inbounds i8, ptr %0, i64 268
  %68 = getelementptr inbounds i8, ptr %0, i64 292
  tail call void @llvm.memset.p0.i64(ptr noundef nonnull align 4 dereferenceable(20) %67, i8 0, i64 20, i1 false)
  store i8 1, ptr %68, align 4
  %69 = getelementptr inbounds i8, ptr %0, i64 293
  store i8 1, ptr %69, align 1
  %70 = getelementptr inbounds i8, ptr %0, i64 294
  store i8 0, ptr %70, align 2
  %71 = getelementptr inbounds i8, ptr %0, i64 296
  store i16 1, ptr %71, align 8
  %72 = getelementptr inbounds i8, ptr %0, i64 298
  store i16 1, ptr %72, align 2
  tail call void @jDefColorspace(ptr noundef nonnull %0)
  ret void
}